target datalayout = "e-m:e-p270:32:32-p271:32:32-p272:64:64-i64:64-i128:128-f80:128-n8:16:32:64-S128"
target triple = "x86_64-pc-linux-gnu"

; Function Attrs: nounwind uwtable
define dso_local void @matrix_add_const(i32 noundef %0, ptr noundef %1, i16 noundef signext %2) #0 {
  %4 = alloca i32, align 4
  %5 = alloca ptr, align 8
  %6 = alloca i16, align 2
  %7 = alloca i32, align 4
  %8 = alloca i32, align 4
  store i32 %0, ptr %4, align 4, !tbaa !16
  store ptr %1, ptr %5, align 8, !tbaa !20
  store i16 %2, ptr %6, align 2, !tbaa !9
  call void @llvm.lifetime.start.p0(i64 4, ptr %7) #3
  call void @llvm.lifetime.start.p0(i64 4, ptr %8) #3
  store i32 0, ptr %7, align 4, !tbaa !16
  br label %9

9:                                                ; preds = %37, %3
  %10 = load i32, ptr %7, align 4, !tbaa !16
  %11 = load i32, ptr %4, align 4, !tbaa !16
  %12 = icmp ult i32 %10, %11
  br i1 %12, label %13, label %40

13:                                               ; preds = %9
  store i32 0, ptr %8, align 4, !tbaa !16
  br label %14

14:                                               ; preds = %33, %13
  %15 = load i32, ptr %8, align 4, !tbaa !16
  %16 = load i32, ptr %4, align 4, !tbaa !16
  %17 = icmp ult i32 %15, %16
  br i1 %17, label %18, label %36

18:                                               ; preds = %14
  %19 = load i16, ptr %6, align 2, !tbaa !9
  %20 = sext i16 %19 to i32
  %21 = load ptr, ptr %5, align 8, !tbaa !20
  %22 = load i32, ptr %7, align 4, !tbaa !16
  %23 = load i32, ptr %4, align 4, !tbaa !16
  %24 = mul i32 %22, %23
  %25 = load i32, ptr %8, align 4, !tbaa !16
  %26 = add i32 %24, %25
  %27 = zext i32 %26 to i64
  %28 = getelementptr inbounds nuw i16, ptr %21, i64 %27
  %29 = load i16, ptr %28, align 2, !tbaa !9
  %30 = sext i16 %29 to i32
  %31 = add nsw i32 %30, %20
  %32 = trunc i32 %31 to i16
  store i16 %32, ptr %28, align 2, !tbaa !9
  br label %33

33:                                               ; preds = %18
  %34 = load i32, ptr %8, align 4, !tbaa !16
  %35 = add i32 %34, 1
  store i32 %35, ptr %8, align 4, !tbaa !16
  br label %14, !llvm.loop !22

36:                                               ; preds = %14
  br label %37

37:                                               ; preds = %36
  %38 = load i32, ptr %7, align 4, !tbaa !16
  %39 = add i32 %38, 1
  store i32 %39, ptr %7, align 4, !tbaa !16
  br label %9, !llvm.loop !24

40:                                               ; preds = %9
  call void @llvm.lifetime.end.p0(i64 4, ptr %8) #3
  call void @llvm.lifetime.end.p0(i64 4, ptr %7) #3
  ret void
}