; Function Attrs: nofree norecurse nosync nounwind memory(argmem: readwrite) uwtable
define dso_local void @matrix_add_const(i32 noundef %0, ptr noundef captures(none) %1, i16 noundef signext %2) local_unnamed_addr #2 {
  %.not = icmp eq i32 %0, 0
  br i1 %.not, label %._crit_edge, label %.preheader.preheader

.preheader.preheader:                             ; preds = %3
  %wide.trip.count = zext i32 %0 to i64
  br label %.preheader

.preheader:                                       ; preds = %.preheader.preheader, %12
  %.01013 = phi i32 [ %13, %12 ], [ 0, %.preheader.preheader ]
  %4 = mul i32 %.01013, %0
  br label %5

5:                                                ; preds = %.preheader, %5
  %indvars.iv = phi i64 [ 0, %.preheader ], [ %indvars.iv.next, %5 ]
  %6 = trunc nuw i64 %indvars.iv to i32
  %7 = add i32 %4, %6
  %8 = zext i32 %7 to i64
  %9 = getelementptr inbounds nuw i16, ptr %1, i64 %8
  %10 = load i16, ptr %9, align 2, !tbaa !15
  %11 = add i16 %10, %2
  store i16 %11, ptr %9, align 2, !tbaa !15
  %indvars.iv.next = add nuw nsw i64 %indvars.iv, 1
  %exitcond.not = icmp eq i64 %indvars.iv.next, %wide.trip.count
  br i1 %exitcond.not, label %12, label %5, !llvm.loop !17

12:                                               ; preds = %5
  %13 = add nuw i32 %.01013, 1
  %exitcond15.not = icmp eq i32 %13, %0
  br i1 %exitcond15.not, label %._crit_edge, label %.preheader, !llvm.loop !19

._crit_edge:                                      ; preds = %12, %3
  ret void
}